target datalayout = "e-m:e-p270:32:32-p271:32:32-p272:64:64-i64:64-i128:128-f80:128-n8:16:32:64-S128"
target triple = "x86_64-pc-linux-gnu"

%struct._urb_info_t = type { i16, i16, i8, i32, i8, i32, i8, i8, i8, i32, ptr, ptr }
%struct._packet_info = type { ptr, ptr, i32, i32, %struct.nstime_t, %struct.nstime_t, %struct.nstime_t, i8, ptr, ptr, ptr, ptr, %struct._address, %struct._address, %struct._address, %struct._address, %struct._address, %struct._address, i32, ptr, i8, [3 x i8], %struct.anon, i32, i32, i32, i32, ptr, i8, ptr, ptr, i16, i16, i32, i32, i16, i32, i32, ptr, ptr, ptr, i8, i8, i16, i16, i16, i32, i16, i16, ptr, ptr, ptr, ptr, ptr, i32, i32 }
%struct.nstime_t = type { i64, i32 }
%struct._address = type { i32, i32, ptr, ptr }
%struct.anon = type { i8, [3 x i8] }
%struct._usb_conv_info_t = type { i8, i16, i16, i16, i16, i8, i16, i32, i16, i8, ptr, ptr, i32, ptr }
%struct._frame_data = type <{ i32, i32, i32, i32, i32, [4 x i8], i64, ptr, ptr, ptr, i8, i16, [5 x i8], %struct.nstime_t, %struct.nstime_t, i32, i32 }>
%struct._audio_conv_info_t = type { [256 x i32] }

@hf_ac_if_extunit_id = internal global i32 0, align 4
@hf_ac_if_extunit_code = internal global i32 0, align 4
@hf_ac_if_extunit_nrpins = internal global i32 0, align 4
@hf_ac_if_extunit_sourceid = internal global i32 0, align 4
@hf_ac_if_extunit_nrchannels = internal global i32 0, align 4
@hf_ac_if_extunit_bmchannelconfig = internal global i32 0, align 4
@hf_ac_if_extunit_channelnames = internal global i32 0, align 4
@hf_ac_if_extunit_bmcontrols = internal global i32 0, align 4
@hf_ac_if_extunit_iext = internal global i32 0, align 4
@ett_ac_if_extunit_bmchannelconfig = internal global i32 0, align 4
@ett_ac_if_extunit_bmcontrols = internal global i32 0, align 4
@dissect_ac_if_extension_unit.eu_bmcontrols = internal constant [5 x ptr] [ptr @hf_ac_if_extunit_bmcontrols_enable_ctrl, ptr @hf_ac_if_extunit_bmcontrols_cluster_ctrl, ptr @hf_ac_if_extunit_bmcontrols_underflow_ctrl, ptr @hf_ac_if_extunit_bmcontrols_overflowflow_ctrl, ptr null], align 16

; Function Attrs: null_pointer_is_valid sspstrong uwtable
define internal ptr @allocate_audio_conv_info() #1 {
  %1 = alloca ptr, align 8
  %2 = alloca i32, align 4
  call void @llvm.lifetime.start.p0(i64 8, ptr %1) #11
  %3 = call ptr @wmem_file_scope()
  %4 = call noalias ptr @wmem_alloc(ptr noundef %3, i64 noundef 1024) #12
  store ptr %4, ptr %1, align 8
  %5 = load ptr, ptr %1, align 8
  %6 = getelementptr inbounds nuw %struct._audio_conv_info_t, ptr %5, i32 0, i32 0
  %7 = getelementptr [256 x i32], ptr %6, i64 0, i64 0
  store i32 1, ptr %7, align 4
  call void @llvm.lifetime.start.p0(i64 4, ptr %2) #11
  store i32 1, ptr %2, align 4
  br label %8

8:                                                ; preds = %18, %0
  %9 = load i32, ptr %2, align 4
  %10 = icmp slt i32 %9, 256
  br i1 %10, label %12, label %11

11:                                               ; preds = %8
  call void @llvm.lifetime.end.p0(i64 4, ptr %2) #11
  br label %21

12:                                               ; preds = %8
  %13 = load ptr, ptr %1, align 8
  %14 = getelementptr inbounds nuw %struct._audio_conv_info_t, ptr %13, i32 0, i32 0
  %15 = load i32, ptr %2, align 4
  %16 = sext i32 %15 to i64
  %17 = getelementptr [256 x i32], ptr %14, i64 0, i64 %16
  store i32 0, ptr %17, align 4
  br label %18

18:                                               ; preds = %12
  %19 = load i32, ptr %2, align 4
  %20 = add i32 %19, 1
  store i32 %20, ptr %2, align 4
  br label %8, !llvm.loop !20

21:                                               ; preds = %11
  %22 = load ptr, ptr %1, align 8
  call void @llvm.lifetime.end.p0(i64 8, ptr %1) #11
  ret ptr %22
}

; Function Attrs: null_pointer_is_valid sspstrong uwtable
define internal void @set_entity_type(ptr noundef %0, i8 noundef zeroext %1, i32 noundef %2) #1 {
  %4 = alloca ptr, align 8
  %5 = alloca i8, align 1
  %6 = alloca i32, align 4
  %7 = alloca ptr, align 8
  %8 = alloca i32, align 4
  store ptr %0, ptr %4, align 8
  store i8 %1, ptr %5, align 1
  store i32 %2, ptr %6, align 4
  call void @llvm.lifetime.start.p0(i64 8, ptr %7) #11
  %9 = load ptr, ptr %4, align 8
  %10 = getelementptr inbounds nuw %struct._urb_info_t, ptr %9, i32 0, i32 11
  %11 = load ptr, ptr %10, align 8
  %12 = getelementptr inbounds nuw %struct._usb_conv_info_t, ptr %11, i32 0, i32 11
  %13 = load ptr, ptr %12, align 8
  store ptr %13, ptr %7, align 8
  %14 = load ptr, ptr %7, align 8
  %15 = icmp ne ptr %14, null
  br i1 %15, label %27, label %16

16:                                               ; preds = %3
  %17 = call ptr @allocate_audio_conv_info()
  store ptr %17, ptr %7, align 8
  %18 = load ptr, ptr %7, align 8
  %19 = load ptr, ptr %4, align 8
  %20 = getelementptr inbounds nuw %struct._urb_info_t, ptr %19, i32 0, i32 11
  %21 = load ptr, ptr %20, align 8
  %22 = getelementptr inbounds nuw %struct._usb_conv_info_t, ptr %21, i32 0, i32 11
  store ptr %18, ptr %22, align 8
  %23 = load ptr, ptr %4, align 8
  %24 = getelementptr inbounds nuw %struct._urb_info_t, ptr %23, i32 0, i32 11
  %25 = load ptr, ptr %24, align 8
  %26 = getelementptr inbounds nuw %struct._usb_conv_info_t, ptr %25, i32 0, i32 12
  store i32 2, ptr %26, align 8
  br label %36

27:                                               ; preds = %3
  %28 = load ptr, ptr %4, align 8
  %29 = getelementptr inbounds nuw %struct._urb_info_t, ptr %28, i32 0, i32 11
  %30 = load ptr, ptr %29, align 8
  %31 = getelementptr inbounds nuw %struct._usb_conv_info_t, ptr %30, i32 0, i32 12
  %32 = load i32, ptr %31, align 8
  %33 = icmp ne i32 %32, 2
  br i1 %33, label %34, label %35

34:                                               ; preds = %27
  store i32 1, ptr %8, align 4
  br label %48

35:                                               ; preds = %27
  br label %36

36:                                               ; preds = %35, %16
  %37 = load i8, ptr %5, align 1
  %38 = zext i8 %37 to i32
  %39 = icmp ne i32 %38, 0
  br i1 %39, label %40, label %47

40:                                               ; preds = %36
  %41 = load i32, ptr %6, align 4
  %42 = load ptr, ptr %7, align 8
  %43 = getelementptr inbounds nuw %struct._audio_conv_info_t, ptr %42, i32 0, i32 0
  %44 = load i8, ptr %5, align 1
  %45 = zext i8 %44 to i64
  %46 = getelementptr [256 x i32], ptr %43, i64 0, i64 %45
  store i32 %41, ptr %46, align 4
  br label %47

47:                                               ; preds = %40, %36
  store i32 0, ptr %8, align 4
  br label %48

48:                                               ; preds = %47, %34
  call void @llvm.lifetime.end.p0(i64 8, ptr %7) #11
  %49 = load i32, ptr %8, align 4
  switch i32 %49, label %51 [
    i32 0, label %50
    i32 1, label %50
  ]

50:                                               ; preds = %48, %48
  ret void

51:                                               ; preds = %48
  unreachable
}

; Function Attrs: null_pointer_is_valid sspstrong uwtable
define internal i32 @dissect_ac_if_extension_unit(ptr noundef %0, i32 noundef %1, ptr noundef %2, ptr noundef %3, ptr noundef %4) #1 {
  %6 = alloca ptr, align 8
  %7 = alloca i32, align 4
  %8 = alloca ptr, align 8
  %9 = alloca ptr, align 8
  %10 = alloca ptr, align 8
  %11 = alloca i32, align 4
  %12 = alloca i8, align 1
  store ptr %0, ptr %6, align 8
  store i32 %1, ptr %7, align 4
  store ptr %2, ptr %8, align 8
  store ptr %3, ptr %9, align 8
  store ptr %4, ptr %10, align 8
  call void @llvm.lifetime.start.p0(i64 4, ptr %11) #11
  call void @llvm.lifetime.start.p0(i64 1, ptr %12) #11
  %13 = load i32, ptr %7, align 4
  store i32 %13, ptr %11, align 4
  %14 = load ptr, ptr %8, align 8
  %15 = getelementptr inbounds nuw %struct._packet_info, ptr %14, i32 0, i32 8
  %16 = load ptr, ptr %15, align 8
  %17 = getelementptr inbounds nuw %struct._frame_data, ptr %16, i32 0, i32 11
  %18 = load i16, ptr %17, align 1
  %19 = lshr i16 %18, 3
  %20 = and i16 %19, 1
  %21 = zext i16 %20 to i32
  %22 = icmp ne i32 %21, 0
  br i1 %22, label %28, label %23

23:                                               ; preds = %5
  %24 = load ptr, ptr %10, align 8
  %25 = load ptr, ptr %6, align 8
  %26 = load i32, ptr %7, align 4
  %27 = call zeroext i8 @tvb_get_uint8(ptr noundef %25, i32 noundef %26)
  call void @set_entity_type(ptr noundef %24, i8 noundef zeroext %27, i32 noundef 16)
  br label %28

28:                                               ; preds = %23, %5
  %29 = load ptr, ptr %9, align 8
  %30 = load i32, ptr @hf_ac_if_extunit_id, align 4
  %31 = load ptr, ptr %6, align 8
  %32 = load i32, ptr %7, align 4
  %33 = call ptr @proto_tree_add_item(ptr noundef %29, i32 noundef %30, ptr noundef %31, i32 noundef %32, i32 noundef 1, i32 noundef -2147483648)
  %34 = load i32, ptr %7, align 4
  %35 = add i32 %34, 1
  store i32 %35, ptr %7, align 4
  %36 = load ptr, ptr %9, align 8
  %37 = load i32, ptr @hf_ac_if_extunit_code, align 4
  %38 = load ptr, ptr %6, align 8
  %39 = load i32, ptr %7, align 4
  %40 = call ptr @proto_tree_add_item(ptr noundef %36, i32 noundef %37, ptr noundef %38, i32 noundef %39, i32 noundef 2, i32 noundef -2147483648)
  %41 = load i32, ptr %7, align 4
  %42 = add i32 %41, 2
  store i32 %42, ptr %7, align 4
  %43 = load ptr, ptr %9, align 8
  %44 = load i32, ptr @hf_ac_if_extunit_nrpins, align 4
  %45 = load ptr, ptr %6, align 8
  %46 = load i32, ptr %7, align 4
  %47 = call ptr @proto_tree_add_item(ptr noundef %43, i32 noundef %44, ptr noundef %45, i32 noundef %46, i32 noundef 1, i32 noundef -2147483648)
  %48 = load ptr, ptr %6, align 8
  %49 = load i32, ptr %7, align 4
  %50 = call zeroext i8 @tvb_get_uint8(ptr noundef %48, i32 noundef %49)
  store i8 %50, ptr %12, align 1
  %51 = load i32, ptr %7, align 4
  %52 = add i32 %51, 1
  store i32 %52, ptr %7, align 4
  br label %53

53:                                               ; preds = %56, %28
  %54 = load i8, ptr %12, align 1
  %55 = icmp ne i8 %54, 0
  br i1 %55, label %56, label %66

56:                                               ; preds = %53
  %57 = load ptr, ptr %9, align 8
  %58 = load i32, ptr @hf_ac_if_extunit_sourceid, align 4
  %59 = load ptr, ptr %6, align 8
  %60 = load i32, ptr %7, align 4
  %61 = call ptr @proto_tree_add_item(ptr noundef %57, i32 noundef %58, ptr noundef %59, i32 noundef %60, i32 noundef 1, i32 noundef -2147483648)
  %62 = load i8, ptr %12, align 1
  %63 = add i8 %62, -1
  store i8 %63, ptr %12, align 1
  %64 = load i32, ptr %7, align 4
  %65 = add i32 %64, 1
  store i32 %65, ptr %7, align 4
  br label %53, !llvm.loop !17

66:                                               ; preds = %53
  %67 = load ptr, ptr %9, align 8
  %68 = load i32, ptr @hf_ac_if_extunit_nrchannels, align 4
  %69 = load ptr, ptr %6, align 8
  %70 = load i32, ptr %7, align 4
  %71 = call ptr @proto_tree_add_item(ptr noundef %67, i32 noundef %68, ptr noundef %69, i32 noundef %70, i32 noundef 1, i32 noundef -2147483648)
  %72 = load i32, ptr %7, align 4
  %73 = add i32 %72, 1
  store i32 %73, ptr %7, align 4
  %74 = load ptr, ptr %9, align 8
  %75 = load ptr, ptr %6, align 8
  %76 = load i32, ptr %7, align 4
  %77 = load i32, ptr @hf_ac_if_extunit_bmchannelconfig, align 4
  %78 = load i32, ptr @ett_ac_if_extunit_bmchannelconfig, align 4
  %79 = call ptr @proto_tree_add_bitmask(ptr noundef %74, ptr noundef %75, i32 noundef %76, i32 noundef %77, i32 noundef %78, ptr noundef @dissect_ac_if_extension_unit.v2_channels, i32 noundef -2147483648)
  %80 = load i32, ptr %7, align 4
  %81 = add i32 %80, 4
  store i32 %81, ptr %7, align 4
  %82 = load ptr, ptr %9, align 8
  %83 = load i32, ptr @hf_ac_if_extunit_channelnames, align 4
  %84 = load ptr, ptr %6, align 8
  %85 = load i32, ptr %7, align 4
  %86 = call ptr @proto_tree_add_item(ptr noundef %82, i32 noundef %83, ptr noundef %84, i32 noundef %85, i32 noundef 1, i32 noundef -2147483648)
  %87 = load i32, ptr %7, align 4
  %88 = add i32 %87, 1
  store i32 %88, ptr %7, align 4
  %89 = load ptr, ptr %9, align 8
  %90 = load ptr, ptr %6, align 8
  %91 = load i32, ptr %7, align 4
  %92 = load i32, ptr @hf_ac_if_extunit_bmcontrols, align 4
  %93 = load i32, ptr @ett_ac_if_extunit_bmcontrols, align 4
  %94 = call ptr @proto_tree_add_bitmask(ptr noundef %89, ptr noundef %90, i32 noundef %91, i32 noundef %92, i32 noundef %93, ptr noundef @dissect_ac_if_extension_unit.eu_bmcontrols, i32 noundef -2147483648)
  %95 = load i32, ptr %7, align 4
  %96 = add i32 %95, 1
  store i32 %96, ptr %7, align 4
  %97 = load ptr, ptr %9, align 8
  %98 = load i32, ptr @hf_ac_if_extunit_iext, align 4
  %99 = load ptr, ptr %6, align 8
  %100 = load i32, ptr %7, align 4
  %101 = call ptr @proto_tree_add_item(ptr noundef %97, i32 noundef %98, ptr noundef %99, i32 noundef %100, i32 noundef 1, i32 noundef -2147483648)
  %102 = load i32, ptr %7, align 4
  %103 = add i32 %102, 1
  store i32 %103, ptr %7, align 4
  %104 = load i32, ptr %7, align 4
  %105 = load i32, ptr %11, align 4
  %106 = sub i32 %104, %105
  call void @llvm.lifetime.end.p0(i64 1, ptr %12) #11
  call void @llvm.lifetime.end.p0(i64 4, ptr %11) #11
  ret i32 %106
}