; Function Attrs: null_pointer_is_valid sspstrong uwtable
define internal fastcc range(i32 6, 5) i32 @dissect_ac_if_extension_unit(ptr noundef %0, i16 %.80.val.57.val, ptr noundef %1, ptr noundef readonly captures(none) %2) unnamed_addr #1 {
  %4 = and i16 %.80.val.57.val, 8
  %.not = icmp eq i16 %4, 0
  br i1 %.not, label %5, label %set_entity_type.exit

5:                                                ; preds = %3
  %6 = tail call zeroext i8 @tvb_get_uint8(ptr noundef %0, i32 noundef 3)
  %7 = getelementptr inbounds nuw i8, ptr %2, i64 40
  %8 = load ptr, ptr %7, align 8
  %9 = getelementptr inbounds nuw i8, ptr %8, i64 32
  %10 = load ptr, ptr %9, align 8
  %.not.i = icmp eq ptr %10, null
  br i1 %.not.i, label %11, label %18

11:                                               ; preds = %5
  %12 = tail call ptr @wmem_file_scope()
  %13 = tail call noalias noundef dereferenceable_or_null(1024) ptr @wmem_alloc(ptr noundef %12, i64 noundef 1024) #10
  store i32 1, ptr %13, align 4
  %scevgep.i.i = getelementptr nuw i8, ptr %13, i64 4
  tail call void @llvm.memset.p0.i64(ptr noundef nonnull align 4 dereferenceable(1020) %scevgep.i.i, i8 0, i64 1020, i1 false)
  %14 = load ptr, ptr %7, align 8
  %15 = getelementptr inbounds nuw i8, ptr %14, i64 32
  store ptr %13, ptr %15, align 8
  %16 = load ptr, ptr %7, align 8
  %17 = getelementptr inbounds nuw i8, ptr %16, i64 40
  store i32 2, ptr %17, align 8
  br label %21

18:                                               ; preds = %5
  %19 = getelementptr inbounds nuw i8, ptr %8, i64 40
  %20 = load i32, ptr %19, align 8
  %.not10.i = icmp eq i32 %20, 2
  br i1 %.not10.i, label %21, label %set_entity_type.exit

21:                                               ; preds = %18, %11
  %.0.i = phi ptr [ %10, %18 ], [ %13, %11 ]
  %.not11.i = icmp eq i8 %6, 0
  br i1 %.not11.i, label %set_entity_type.exit, label %22

22:                                               ; preds = %21
  %23 = zext i8 %6 to i64
  %24 = getelementptr [256 x i32], ptr %.0.i, i64 0, i64 %23
  store i32 16, ptr %24, align 4
  br label %set_entity_type.exit

set_entity_type.exit:                             ; preds = %22, %21, %18, %3
  %25 = load i32, ptr @hf_ac_if_extunit_id, align 4
  %26 = tail call ptr @proto_tree_add_item(ptr noundef %1, i32 noundef %25, ptr noundef %0, i32 noundef 3, i32 noundef 1, i32 noundef -2147483648)
  %27 = load i32, ptr @hf_ac_if_extunit_code, align 4
  %28 = tail call ptr @proto_tree_add_item(ptr noundef %1, i32 noundef %27, ptr noundef %0, i32 noundef 4, i32 noundef 2, i32 noundef -2147483648)
  %29 = load i32, ptr @hf_ac_if_extunit_nrpins, align 4
  %30 = tail call ptr @proto_tree_add_item(ptr noundef %1, i32 noundef %29, ptr noundef %0, i32 noundef 6, i32 noundef 1, i32 noundef -2147483648)
  %31 = tail call zeroext i8 @tvb_get_uint8(ptr noundef %0, i32 noundef 6)
  %.not471 = icmp eq i8 %31, 0
  br i1 %.not471, label %._crit_edge, label %.lr.ph

.lr.ph:                                           ; preds = %set_entity_type.exit, %.lr.ph
  %.03 = phi i8 [ %34, %.lr.ph ], [ %31, %set_entity_type.exit ]
  %.0462 = phi i32 [ %35, %.lr.ph ], [ 7, %set_entity_type.exit ]
  %32 = load i32, ptr @hf_ac_if_extunit_sourceid, align 4
  %33 = tail call ptr @proto_tree_add_item(ptr noundef %1, i32 noundef %32, ptr noundef %0, i32 noundef %.0462, i32 noundef 1, i32 noundef -2147483648)
  %34 = add i8 %.03, -1
  %35 = add nuw nsw i32 %.0462, 1
  %.not47 = icmp eq i8 %34, 0
  br i1 %.not47, label %._crit_edge, label %.lr.ph, !llvm.loop !16

._crit_edge:                                      ; preds = %.lr.ph, %set_entity_type.exit
  %.046.lcssa = phi i32 [ 7, %set_entity_type.exit ], [ %35, %.lr.ph ]
  %36 = load i32, ptr @hf_ac_if_extunit_nrchannels, align 4
  %37 = tail call ptr @proto_tree_add_item(ptr noundef %1, i32 noundef %36, ptr noundef %0, i32 noundef %.046.lcssa, i32 noundef 1, i32 noundef -2147483648)
  %38 = add i32 %.046.lcssa, 1
  %39 = load i32, ptr @hf_ac_if_extunit_bmchannelconfig, align 4
  %40 = load i32, ptr @ett_ac_if_extunit_bmchannelconfig, align 4
  %41 = tail call ptr @proto_tree_add_bitmask(ptr noundef %1, ptr noundef %0, i32 noundef %38, i32 noundef %39, i32 noundef %40, ptr noundef nonnull @dissect_ac_if_extension_unit.v2_channels, i32 noundef -2147483648)
  %42 = add i32 %.046.lcssa, 5
  %43 = load i32, ptr @hf_ac_if_extunit_channelnames, align 4
  %44 = tail call ptr @proto_tree_add_item(ptr noundef %1, i32 noundef %43, ptr noundef %0, i32 noundef %42, i32 noundef 1, i32 noundef -2147483648)
  %45 = add i32 %.046.lcssa, 6
  %46 = load i32, ptr @hf_ac_if_extunit_bmcontrols, align 4
  %47 = load i32, ptr @ett_ac_if_extunit_bmcontrols, align 4
  %48 = tail call ptr @proto_tree_add_bitmask(ptr noundef %1, ptr noundef %0, i32 noundef %45, i32 noundef %46, i32 noundef %47, ptr noundef nonnull @dissect_ac_if_extension_unit.eu_bmcontrols, i32 noundef -2147483648)
  %49 = add i32 %.046.lcssa, 7
  %50 = load i32, ptr @hf_ac_if_extunit_iext, align 4
  %51 = tail call ptr @proto_tree_add_item(ptr noundef %1, i32 noundef %50, ptr noundef %0, i32 noundef %49, i32 noundef 1, i32 noundef -2147483648)
  ret i32 %42
}